target datalayout = "e-m:e-p270:32:32-p271:32:32-p272:64:64-i64:64-i128:128-f80:128-n8:16:32:64-S128"
target triple = "x86_64-pc-linux-gnu"

%struct.AVDeviceInfoList = type { ptr, i32, i32 }
%struct.AVDeviceInfo = type { ptr, ptr, ptr, i32 }

@.str.116 = private unnamed_addr constant [5 x i8] c"none\00", align 1
@.str.174 = private unnamed_addr constant [3 x i8] c"%s\00", align 1
@.str.180 = private unnamed_addr constant [13 x i8] c"%c %s [%s] (\00", align 1
@.str.181 = private unnamed_addr constant [3 x i8] c", \00", align 1
@.str.182 = private unnamed_addr constant [8 x i8] c"unknown\00", align 1
@.str.183 = private unnamed_addr constant [3 x i8] c")\0A\00", align 1

; Function Attrs: nounwind uwtable
define internal void @print_device_list(ptr noundef %0) #0 {
  %2 = alloca ptr, align 8
  %3 = alloca i32, align 4
  %4 = alloca i32, align 4
  %5 = alloca ptr, align 8
  %6 = alloca i32, align 4
  %7 = alloca ptr, align 8
  store ptr %0, ptr %2, align 8, !tbaa !160
  call void @llvm.lifetime.start.p0(i64 4, ptr %3) #11
  store i32 0, ptr %3, align 4, !tbaa !10
  br label %8

8:                                                ; preds = %78, %1
  %9 = load i32, ptr %3, align 4, !tbaa !10
  %10 = load ptr, ptr %2, align 8, !tbaa !160
  %11 = getelementptr inbounds nuw %struct.AVDeviceInfoList, ptr %10, i32 0, i32 1
  %12 = load i32, ptr %11, align 8, !tbaa !183
  %13 = icmp slt i32 %9, %12
  br i1 %13, label %15, label %14

14:                                               ; preds = %8
  store i32 2, ptr %4, align 4
  call void @llvm.lifetime.end.p0(i64 4, ptr %3) #11
  br label %81

15:                                               ; preds = %8
  call void @llvm.lifetime.start.p0(i64 8, ptr %5) #11
  %16 = load ptr, ptr %2, align 8, !tbaa !160
  %17 = getelementptr inbounds nuw %struct.AVDeviceInfoList, ptr %16, i32 0, i32 0
  %18 = load ptr, ptr %17, align 8, !tbaa !186
  %19 = load i32, ptr %3, align 4, !tbaa !10
  %20 = sext i32 %19 to i64
  %21 = getelementptr inbounds ptr, ptr %18, i64 %20
  %22 = load ptr, ptr %21, align 8, !tbaa !187
  store ptr %22, ptr %5, align 8, !tbaa !187
  %23 = load ptr, ptr %2, align 8, !tbaa !160
  %24 = getelementptr inbounds nuw %struct.AVDeviceInfoList, ptr %23, i32 0, i32 2
  %25 = load i32, ptr %24, align 4, !tbaa !189
  %26 = load i32, ptr %3, align 4, !tbaa !10
  %27 = icmp eq i32 %25, %26
  %28 = select i1 %27, i32 42, i32 32
  %29 = load ptr, ptr %5, align 8, !tbaa !187
  %30 = getelementptr inbounds nuw %struct.AVDeviceInfo, ptr %29, i32 0, i32 0
  %31 = load ptr, ptr %30, align 8, !tbaa !190
  %32 = load ptr, ptr %5, align 8, !tbaa !187
  %33 = getelementptr inbounds nuw %struct.AVDeviceInfo, ptr %32, i32 0, i32 1
  %34 = load ptr, ptr %33, align 8, !tbaa !192
  %35 = call i32 (ptr, ...) @printf(ptr noundef @.str.180, i32 noundef %28, ptr noundef %31, ptr noundef %34)
  %36 = load ptr, ptr %5, align 8, !tbaa !187
  %37 = getelementptr inbounds nuw %struct.AVDeviceInfo, ptr %36, i32 0, i32 3
  %38 = load i32, ptr %37, align 8, !tbaa !193
  %39 = icmp sgt i32 %38, 0
  br i1 %39, label %40, label %74

40:                                               ; preds = %15
  call void @llvm.lifetime.start.p0(i64 4, ptr %6) #11
  store i32 0, ptr %6, align 4, !tbaa !10
  br label %41

41:                                               ; preds = %70, %40
  %42 = load i32, ptr %6, align 4, !tbaa !10
  %43 = load ptr, ptr %5, align 8, !tbaa !187
  %44 = getelementptr inbounds nuw %struct.AVDeviceInfo, ptr %43, i32 0, i32 3
  %45 = load i32, ptr %44, align 8, !tbaa !193
  %46 = icmp slt i32 %42, %45
  br i1 %46, label %48, label %47

47:                                               ; preds = %41
  store i32 5, ptr %4, align 4
  call void @llvm.lifetime.end.p0(i64 4, ptr %6) #11
  br label %73

48:                                               ; preds = %41
  call void @llvm.lifetime.start.p0(i64 8, ptr %7) #11
  %49 = load ptr, ptr %5, align 8, !tbaa !187
  %50 = getelementptr inbounds nuw %struct.AVDeviceInfo, ptr %49, i32 0, i32 2
  %51 = load ptr, ptr %50, align 8, !tbaa !194
  %52 = load i32, ptr %6, align 4, !tbaa !10
  %53 = sext i32 %52 to i64
  %54 = getelementptr inbounds i32, ptr %51, i64 %53
  %55 = load i32, ptr %54, align 4, !tbaa !10
  %56 = call ptr @av_get_media_type_string(i32 noundef %55)
  store ptr %56, ptr %7, align 8, !tbaa !8
  %57 = load i32, ptr %6, align 4, !tbaa !10
  %58 = icmp sgt i32 %57, 0
  br i1 %58, label %59, label %61

59:                                               ; preds = %48
  %60 = call i32 (ptr, ...) @printf(ptr noundef @.str.181)
  br label %61

61:                                               ; preds = %59, %48
  %62 = load ptr, ptr %7, align 8, !tbaa !8
  %63 = icmp ne ptr %62, null
  br i1 %63, label %64, label %66

64:                                               ; preds = %61
  %65 = load ptr, ptr %7, align 8, !tbaa !8
  br label %67

66:                                               ; preds = %61
  br label %67

67:                                               ; preds = %66, %64
  %68 = phi ptr [ %65, %64 ], [ @.str.182, %66 ]
  %69 = call i32 (ptr, ...) @printf(ptr noundef @.str.174, ptr noundef %68)
  call void @llvm.lifetime.end.p0(i64 8, ptr %7) #11
  br label %70

70:                                               ; preds = %67
  %71 = load i32, ptr %6, align 4, !tbaa !10
  %72 = add nsw i32 %71, 1
  store i32 %72, ptr %6, align 4, !tbaa !10
  br label %41, !llvm.loop !195

73:                                               ; preds = %47
  br label %76

74:                                               ; preds = %15
  %75 = call i32 (ptr, ...) @printf(ptr noundef @.str.116)
  br label %76

76:                                               ; preds = %74, %73
  %77 = call i32 (ptr, ...) @printf(ptr noundef @.str.183)
  call void @llvm.lifetime.end.p0(i64 8, ptr %5) #11
  br label %78

78:                                               ; preds = %76
  %79 = load i32, ptr %3, align 4, !tbaa !10
  %80 = add nsw i32 %79, 1
  store i32 %80, ptr %3, align 4, !tbaa !10
  br label %8, !llvm.loop !196

81:                                               ; preds = %14
  ret void
}