; Function Attrs: nounwind uwtable
define internal fastcc void @print_device_list(ptr noundef readonly captures(none) %0) unnamed_addr #2 {
  %2 = getelementptr inbounds nuw i8, ptr %0, i64 8
  %3 = load i32, ptr %2, align 8, !tbaa !151
  %4 = icmp sgt i32 %3, 0
  br i1 %4, label %.lr.ph21, label %._crit_edge

.lr.ph21:                                         ; preds = %1
  %5 = getelementptr inbounds nuw i8, ptr %0, i64 12
  br label %6

._crit_edge:                                      ; preds = %.loopexit, %1
  ret void

6:                                                ; preds = %.lr.ph21, %.loopexit
  %indvars.iv23 = phi i64 [ 0, %.lr.ph21 ], [ %indvars.iv.next24, %.loopexit ]
  %7 = load ptr, ptr %0, align 8, !tbaa !154
  %8 = getelementptr inbounds nuw ptr, ptr %7, i64 %indvars.iv23
  %9 = load ptr, ptr %8, align 8, !tbaa !155
  %10 = load i32, ptr %5, align 4, !tbaa !157
  %11 = zext i32 %10 to i64
  %12 = icmp eq i64 %indvars.iv23, %11
  %13 = select i1 %12, i32 42, i32 32
  %14 = load ptr, ptr %9, align 8, !tbaa !158
  %15 = getelementptr inbounds nuw i8, ptr %9, i64 8
  %16 = load ptr, ptr %15, align 8, !tbaa !160
  %17 = tail call i32 (ptr, ...) @printf(ptr noundef nonnull dereferenceable(1) @.str.180, i32 noundef %13, ptr noundef %14, ptr noundef %16)
  %18 = getelementptr inbounds nuw i8, ptr %9, i64 24
  %19 = load i32, ptr %18, align 8, !tbaa !161
  %20 = icmp sgt i32 %19, 0
  br i1 %20, label %.lr.ph, label %35

.lr.ph:                                           ; preds = %6
  %21 = getelementptr inbounds nuw i8, ptr %9, i64 16
  br label %22

22:                                               ; preds = %.lr.ph, %29
  %indvars.iv = phi i64 [ 0, %.lr.ph ], [ %indvars.iv.next, %29 ]
  %23 = load ptr, ptr %21, align 8, !tbaa !162
  %24 = getelementptr inbounds nuw i32, ptr %23, i64 %indvars.iv
  %25 = load i32, ptr %24, align 4, !tbaa !4
  %26 = tail call ptr @av_get_media_type_string(i32 noundef %25) #17
  %.not = icmp eq i64 %indvars.iv, 0
  br i1 %.not, label %29, label %27

27:                                               ; preds = %22
  %28 = tail call i32 (ptr, ...) @printf(ptr noundef nonnull dereferenceable(1) @.str.181)
  br label %29

29:                                               ; preds = %27, %22
  %.not18 = icmp eq ptr %26, null
  %30 = select i1 %.not18, ptr @.str.182, ptr %26
  %31 = tail call i32 (ptr, ...) @printf(ptr noundef nonnull dereferenceable(1) @.str.174, ptr noundef nonnull %30)
  %indvars.iv.next = add nuw nsw i64 %indvars.iv, 1
  %32 = load i32, ptr %18, align 8, !tbaa !161
  %33 = sext i32 %32 to i64
  %34 = icmp slt i64 %indvars.iv.next, %33
  br i1 %34, label %22, label %.loopexit, !llvm.loop !163

35:                                               ; preds = %6
  %36 = tail call i32 (ptr, ...) @printf(ptr noundef nonnull dereferenceable(1) @.str.116)
  br label %.loopexit

.loopexit:                                        ; preds = %29, %35
  %puts = tail call i32 @puts(ptr nonnull dereferenceable(1) @str.17)
  %indvars.iv.next24 = add nuw nsw i64 %indvars.iv23, 1
  %37 = load i32, ptr %2, align 8, !tbaa !151
  %38 = sext i32 %37 to i64
  %39 = icmp slt i64 %indvars.iv.next24, %38
  br i1 %39, label %6, label %._crit_edge, !llvm.loop !164
}